ccopy_reg
_reconstructor
p0
(c__main__
pyMap
p1
c__builtin__
object
p2
Ntp3
Rp4
(dp5
Vmapname
p6
Vnormal
p7
sVproperties_list
p8
(lp9
g0
(c__main__
Property
p10
g2
Ntp11
Rp12
(dp13
Vname
p14
VStart!
p15
sVsell_price
p16
I-1
sVowner
p17
NsVupgrade_price
p18
I-1
sV_status
p19
I0
sVprice
p20
I-1
sVidx
p21
Nsbag0
(g10
g2
Ntp22
Rp23
(dp24
g14
Vprop
p25
sg16
I100
sg17
Nsg18
I50
sg19
I0
sg20
I50
sg21
Nsbag0
(g10
g2
Ntp26
Rp27
(dp28
g14
g25
sg16
I100
sg17
Nsg18
I50
sg19
I0
sg20
I50
sg21
Nsbag0
(g10
g2
Ntp29
Rp30
(dp31
g14
g25
sg16
I100
sg17
Nsg18
I50
sg19
I0
sg20
I50
sg21
Nsbag0
(g10
g2
Ntp32
Rp33
(dp34
g14
g25
sg16
I100
sg17
Nsg18
I50
sg19
I0
sg20
I50
sg21
Nsbag0
(g10
g2
Ntp35
Rp36
(dp37
g14
g25
sg16
I100
sg17
Nsg18
I50
sg19
I0
sg20
I50
sg21
Nsbag0
(g10
g2
Ntp38
Rp39
(dp40
g14
g25
sg16
I100
sg17
Nsg18
I50
sg19
I0
sg20
I50
sg21
Nsbag0
(g10
g2
Ntp41
Rp42
(dp43
g14
g25
sg16
I100
sg17
Nsg18
I50
sg19
I0
sg20
I50
sg21
Nsbag0
(g10
g2
Ntp44
Rp45
(dp46
g14
g25
sg16
I100
sg17
Nsg18
I50
sg19
I0
sg20
I50
sg21
Nsbag0
(g10
g2
Ntp47
Rp48
(dp49
g14
cnumpy.core.multiarray
scalar
p50
(cnumpy
dtype
p51
(VU7
p52
I0
I1
tp53
Rp54
(I3
V<
p55
NNNI28
I4
I8
tp56
bc_codecs
encode
p57
(VW\u0000\u0000\u0000e\u0000\u0000\u0000l\u0000\u0000\u0000f\u0000\u0000\u0000a\u0000\u0000\u0000r\u0000\u0000\u0000e\u0000\u0000\u0000
p58
Vlatin1
p59
tp60
Rp61
tp62
Rp63
sg16
I-1
sg17
Nsg18
I-1
sg19
I0
sg20
I-1
sg21
Nsbag0
(g10
g2
Ntp64
Rp65
(dp66
g14
g25
sg16
I100
sg17
Nsg18
I50
sg19
I0
sg20
I50
sg21
Nsbag0
(g10
g2
Ntp67
Rp68
(dp69
g14
g25
sg16
I100
sg17
Nsg18
I50
sg19
I0
sg20
I50
sg21
Nsbag0
(g10
g2
Ntp70
Rp71
(dp72
g14
g25
sg16
I100
sg17
Nsg18
I50
sg19
I0
sg20
I50
sg21
Nsbag0
(g10
g2
Ntp73
Rp74
(dp75
g14
g25
sg16
I100
sg17
Nsg18
I50
sg19
I0
sg20
I50
sg21
Nsbag0
(g10
g2
Ntp76
Rp77
(dp78
g14
g25
sg16
I100
sg17
Nsg18
I50
sg19
I0
sg20
I50
sg21
Nsbag0
(g10
g2
Ntp79
Rp80
(dp81
g14
g25
sg16
I100
sg17
Nsg18
I50
sg19
I0
sg20
I50
sg21
Nsbag0
(g10
g2
Ntp82
Rp83
(dp84
g14
g25
sg16
I100
sg17
Nsg18
I50
sg19
I0
sg20
I50
sg21
Nsbag0
(g10
g2
Ntp85
Rp86
(dp87
g14
g25
sg16
I100
sg17
Nsg18
I50
sg19
I0
sg20
I50
sg21
Nsbag0
(g10
g2
Ntp88
Rp89
(dp90
g14
g63
sg16
I-1
sg17
Nsg18
I-1
sg19
I0
sg20
I-1
sg21
Nsbag0
(g10
g2
Ntp91
Rp92
(dp93
g14
g25
sg16
I100
sg17
Nsg18
I50
sg19
I0
sg20
I50
sg21
Nsbag0
(g10
g2
Ntp94
Rp95
(dp96
g14
g25
sg16
I100
sg17
Nsg18
I50
sg19
I0
sg20
I50
sg21
Nsbag0
(g10
g2
Ntp97
Rp98
(dp99
g14
g25
sg16
I100
sg17
Nsg18
I50
sg19
I0
sg20
I50
sg21
Nsbag0
(g10
g2
Ntp100
Rp101
(dp102
g14
g25
sg16
I100
sg17
Nsg18
I50
sg19
I0
sg20
I50
sg21
Nsbag0
(g10
g2
Ntp103
Rp104
(dp105
g14
g25
sg16
I100
sg17
Nsg18
I50
sg19
I0
sg20
I50
sg21
Nsbag0
(g10
g2
Ntp106
Rp107
(dp108
g14
g25
sg16
I100
sg17
Nsg18
I50
sg19
I0
sg20
I50
sg21
Nsbag0
(g10
g2
Ntp109
Rp110
(dp111
g14
g25
sg16
I100
sg17
Nsg18
I50
sg19
I0
sg20
I50
sg21
Nsbag0
(g10
g2
Ntp112
Rp113
(dp114
g14
g25
sg16
I100
sg17
Nsg18
I50
sg19
I0
sg20
I50
sg21
Nsbag0
(g10
g2
Ntp115
Rp116
(dp117
g14
g63
sg16
I-1
sg17
Nsg18
I-1
sg19
I0
sg20
I-1
sg21
Nsbag0
(g10
g2
Ntp118
Rp119
(dp120
g14
g25
sg16
I100
sg17
Nsg18
I50
sg19
I0
sg20
I50
sg21
Nsbag0
(g10
g2
Ntp121
Rp122
(dp123
g14
g25
sg16
I100
sg17
Nsg18
I50
sg19
I0
sg20
I50
sg21
Nsbag0
(g10
g2
Ntp124
Rp125
(dp126
g14
g25
sg16
I100
sg17
Nsg18
I50
sg19
I0
sg20
I50
sg21
Nsbag0
(g10
g2
Ntp127
Rp128
(dp129
g14
g25
sg16
I100
sg17
Nsg18
I50
sg19
I0
sg20
I50
sg21
Nsbag0
(g10
g2
Ntp130
Rp131
(dp132
g14
g25
sg16
I100
sg17
Nsg18
I50
sg19
I0
sg20
I50
sg21
Nsbag0
(g10
g2
Ntp133
Rp134
(dp135
g14
g25
sg16
I100
sg17
Nsg18
I50
sg19
I0
sg20
I50
sg21
Nsbag0
(g10
g2
Ntp136
Rp137
(dp138
g14
g25
sg16
I100
sg17
Nsg18
I50
sg19
I0
sg20
I50
sg21
Nsbag0
(g10
g2
Ntp139
Rp140
(dp141
g14
g25
sg16
I100
sg17
Nsg18
I50
sg19
I0
sg20
I50
sg21
Nsbasb.