ccopy_reg
_reconstructor
p0
(c__main__
SetOption
p1
c__builtin__
object
p2
Ntp3
Rp4
(dp5
Vmaps
p6
(lp7
g0
(c__main__
pyMap
p8
g2
Ntp9
Rp10
(dp11
Vaddress
p12
V/Users/tianyima/github/pyMonopoly/Data/Maps/standard.txt
p13
sVdict
p14
(dp15
Vname
p16
Vstandard\u000a
p17
sV0
p18
V Place 0\u000a
p19
sV1
p20
V Place 1\u000a
p21
sV2
p22
V Place 2\u000a
p23
sV3
p24
V Place 3\u000a
p25
sV4
p26
V Place 4\u000a
p27
sV5
p28
V Place 5\u000a
p29
sV6
p30
V Place 6\u000a
p31
sV7
p32
V Place 7\u000a
p33
sV8
p34
V Place 8\u000a
p35
sV9
p36
V Place 9\u000a
p37
sV10
p38
V Place 10\u000a
p39
sV11
p40
V Place 11\u000a
p41
sV12
p42
V Place 12\u000a
p43
sV13
p44
V Place 13\u000a
p45
sV14
p46
V Place 14\u000a
p47
sV15
p48
V Place 15\u000a
p49
sV16
p50
V Place 16\u000a
p51
sV17
p52
V Place 17\u000a
p53
sV18
p54
V Place 18\u000a
p55
sV19
p56
V Place 19\u000a
p57
sV20
p58
V Place 20\u000a
p59
sV21
p60
V Place 21\u000a
p61
sV22
p62
V Place 22\u000a
p63
sV23
p64
V Place 23\u000a
p65
sV24
p66
V Place 24\u000a
p67
sV25
p68
V Place 25\u000a
p69
sV26
p70
V Place 26\u000a
p71
sV27
p72
V Place 27\u000a
p73
sV28
p74
V Place 28\u000a
p75
sV29
p76
V Place 29\u000a
p77
sV30
p78
V Place 30\u000a
p79
sV31
p80
V Place 31\u000a
p81
sV32
p82
V Place 32\u000a
p83
sV33
p84
V Place 33\u000a
p85
sV34
p86
V Place 34\u000a
p87
sV35
p88
V Place 35\u000a
p89
sV36
p90
V Place 36\u000a
p91
sV37
p92
V Place 37\u000a
p93
sV38
p94
V Place 38\u000a
p95
sV39
p96
V Place 39\u000a
p97
sV40
p98
V Place 40\u000a
p99
sV41
p100
V Place 41\u000a
p101
sV42
p102
V Place 42\u000a
p103
sV43
p104
V Place 43\u000a
p105
sV44
p106
V Place 44\u000a
p107
sV45
p108
V Place 45\u000a
p109
sV46
p110
V Place 46\u000a
p111
sV47
p112
V Place 47\u000a
p113
sV48
p114
V Place 48\u000a
p115
sV49
p116
V Place 49\u000a
p117
sV50
p118
V Place 50\u000a
p119
sV51
p120
V Place 51\u000a
p121
sV52
p122
V Place 52\u000a
p123
sV53
p124
V Place 53\u000a
p125
sV54
p126
V Place 54\u000a
p127
sV55
p128
V Place 55\u000a
p129
sV56
p130
V Place 56\u000a
p131
sV57
p132
V Place 57\u000a
p133
sV58
p134
V Place 58\u000a
p135
sV59
p136
V Place 59\u000a
p137
sV60
p138
V Place 60\u000a
p139
sV61
p140
V Place 61\u000a
p141
sV62
p142
V Place 62\u000a
p143
sV63
p144
V Place 63\u000a
p145
sV64
p146
V Place 64\u000a
p147
sV65
p148
V Place 65\u000a
p149
sV66
p150
V Place 66\u000a
p151
sV67
p152
V Place 67\u000a
p153
sV68
p154
V Place 68\u000a
p155
sV69
p156
V Place 69\u000a
p157
sV70
p158
V Place 70\u000a
p159
sV71
p160
V Place 71\u000a
p161
sV72
p162
V Place 72\u000a
p163
sV73
p164
V Place 73\u000a
p165
sV74
p166
V Place 74\u000a
p167
sV75
p168
V Place 75\u000a
p169
sV76
p170
V Place 76\u000a
p171
sV77
p172
V Place 77\u000a
p173
sV78
p174
V Place 78\u000a
p175
sV79
p176
V Place 79\u000a
p177
sV80
p178
V Place 80\u000a
p179
sV81
p180
V Place 81\u000a
p181
sV82
p182
V Place 82\u000a
p183
sV83
p184
V Place 83\u000a
p185
sV84
p186
V Place 84\u000a
p187
sV85
p188
V Place 85\u000a
p189
sV86
p190
V Place 86\u000a
p191
sV87
p192
V Place 87\u000a
p193
sV88
p194
V Place 88\u000a
p195
sV89
p196
V Place 89\u000a
p197
sV90
p198
V Place 90\u000a
p199
sV91
p200
V Place 91\u000a
p201
sV92
p202
V Place 92\u000a
p203
sV93
p204
V Place 93\u000a
p205
sV94
p206
V Place 94\u000a
p207
sV95
p208
V Place 95\u000a
p209
sV96
p210
V Place 96\u000a
p211
sV97
p212
V Place 97\u000a
p213
sV98
p214
V Place 98\u000a
p215
sV99
p216
V Place 99\u000a
p217
sVsetting address
p218
g13
ssVmapname
p219
Vstandard
p220
sbag0
(g8
g2
Ntp221
Rp222
(dp223
g12
V/Users/tianyima/github/pyMonopoly/Data/Maps/hard.txt
p224
sg14
(dp225
Vname
p226
Vhard\u000a
p227
sg218
g224
ssg219
Vhard
p228
sbasVplayers
p229
(lp230
g0
(c__main__
player
p231
g2
Ntp232
Rp233
(dp234
g14
(dp235
Vname
p236
VBilly\u000a
p237
sVmark
p238
V*\u000a
p239
sVgames_played
p240
V0\u000a
p241
sg218
V/Users/tianyima/github/pyMonopoly/Data/Players/Billy.txt
p242
ssVname
p243
VBilly
p244
sVmark
p245
g239
sVgames_palyed
p246
g241
sVmoney
p247
I0
sbag0
(g231
g2
Ntp248
Rp249
(dp250
g14
(dp251
Vname
p252
VSara\u000a
p253
sVmark
p254
V&\u000a
p255
sVgames_played
p256
V0\u000a
p257
sg218
V/Users/tianyima/github/pyMonopoly/Data/Players/Sara.txt
p258
ssg243
VSara
p259
sg245
g255
sg246
g257
sg247
I0
sbag0
(g231
g2
Ntp260
Rp261
(dp262
g14
(dp263
Vname
p264
VTom\u000a
p265
sVmark
p266
V@\u000a
p267
sVgames_played
p268
g18
sg218
V/Users/tianyima/github/pyMonopoly/Data/Players/Tom.txt
p269
ssg243
VTom
p270
sg245
g267
sg246
g18
sg247
I0
sbag0
(g231
g2
Ntp271
Rp272
(dp273
g14
(dp274
Vname
p275
VJohn\u000a
p276
sVmark
p277
V!\u000a
p278
sVgames_played
p279
g18
sg218
V/Users/tianyima/github/pyMonopoly/Data/Players/John.txt
p280
ssg243
VJohn
p281
sg245
g278
sg246
g18
sg247
I0
sbag0
(g231
g2
Ntp282
Rp283
(dp284
g14
(dp285
Vname
p286
Vmimi\u000a
p287
sVmark
p288
V^\u000a
p289
sVgames_played
p290
g18
sg218
V/Users/tianyima/github/pyMonopoly/Data/Players/mimi.txt
p291
ssg243
Vmimi
p292
sg245
g289
sg246
g18
sg247
I0
sbag0
(g231
g2
Ntp293
Rp294
(dp295
g14
(dp296
Vname
p297
VJimmy\u000a
p298
sVmark
p299
V**\u000a
p300
sVgames_played
p301
g18
sg218
V/Users/tianyima/github/pyMonopoly/Data/Players/Jimmy.txt
p302
ssg243
VJimmy
p303
sg245
g300
sg246
g18
sg247
I0
sbasg14
(dp304
Vmaps
p305
Vstandard,hard\u000a
p306
sVselect_players
p307
VSara,Tom,Billy\u000a
p308
sVselected_map
p309
Vstandard\u000a
p310
sVplayers
p311
VBilly,Sara,Tom,John,mimi,Jimmy\u000a
p312
sVmoney
p313
V10000\u000a
p314
sVnum_players
p315
g24
sg218
V/Users/tianyima/github/pyMonopoly/Data/Setting.txt
p316
ssVnum_players
p317
I3
sg247
I10000
sVplaymap
p318
g10
sVplay_players
p319
(lp320
g249
ag261
ag233
asb.