ccopy_reg
_reconstructor
p0
(c__main__
SetOption
p1
c__builtin__
object
p2
Ntp3
Rp4
(dp5
Vmaps
p6
(lp7
sVplayers
p8
(lp9
g0
(c__main__
player
p10
g2
Ntp11
Rp12
(dp13
Vname
p14
VBilly
p15
sVmark
p16
V@
p17
sVgames_played
p18
I0
sVmoney
p19
I0
sbag0
(g10
g2
Ntp20
Rp21
(dp22
g14
VTom
p23
sg16
V!
p24
sg18
I0
sg19
I0
sbasVdict
p25
c__builtin__
dict
p26
sVnum_players
p27
I2
sg19
I10000
sVplaymap
p28
NsVplay_players
p29
(lp30
g12
ag21
asb.