ccopy_reg
_reconstructor
p0
(c__main__
SetOption
p1
c__builtin__
object
p2
Ntp3
Rp4
(dp5
Vmaps
p6
(lp7
g0
(c__main__
pyMap
p8
g2
Ntp9
Rp10
(dp11
Vmapname
p12
Vnormal.txt
p13
sbasVplayers
p14
(lp15
g0
(c__main__
Player
p16
g2
Ntp17
Rp18
(dp19
Vdict
p20
(dp21
Vname
p22
VTom\u000a
p23
sVmark
p24
V$\u000a
p25
sVgames_played
p26
V0
p27
sVsetting address
p28
V/Users/tianyima/github/pyMonopoly/Data/Players/Tom.txt
p29
ssVname
p30
VTom
p31
sVmark
p32
V$
p33
sVgames_palyed
p34
I0
sVmoney
p35
I0
sbag0
(g16
g2
Ntp36
Rp37
(dp38
g20
(dp39
Vname
p40
VBilly\u000a
p41
sVmark
p42
V!\u000a
p43
sVgames_played
p44
g27
sg28
V/Users/tianyima/github/pyMonopoly/Data/Players/Billy.txt
p45
ssg30
VBilly
p46
sg32
V!
p47
sg34
I0
sg35
I0
sbasg20
c__builtin__
dict
p48
sVnum_players
p49
I2
sg35
I10000
sVplaymap
p50
g0
(g8
g2
Ntp51
Rp52
(dp53
g12
Vnormal
p54
sVproperties_list
p55
(lp56
g0
(c__main__
Property
p57
g2
Ntp58
Rp59
(dp60
g30
VStart!
p61
sVsell_price
p62
I-1
sVowner
p63
NsVupgrade_price
p64
I-1
sV_status
p65
I0
sVprice
p66
I-1
sbag0
(g57
g2
Ntp67
Rp68
(dp69
g30
Vprop
p70
sg62
I100
sg63
Nsg64
I50
sg65
I0
sg66
I50
sbag0
(g57
g2
Ntp71
Rp72
(dp73
g30
g70
sg62
I100
sg63
Nsg64
I50
sg65
I0
sg66
I50
sbag0
(g57
g2
Ntp74
Rp75
(dp76
g30
g70
sg62
I100
sg63
Nsg64
I50
sg65
I0
sg66
I50
sbag0
(g57
g2
Ntp77
Rp78
(dp79
g30
g70
sg62
I100
sg63
Nsg64
I50
sg65
I0
sg66
I50
sbag0
(g57
g2
Ntp80
Rp81
(dp82
g30
g70
sg62
I100
sg63
Nsg64
I50
sg65
I0
sg66
I50
sbag0
(g57
g2
Ntp83
Rp84
(dp85
g30
g70
sg62
I100
sg63
Nsg64
I50
sg65
I0
sg66
I50
sbag0
(g57
g2
Ntp86
Rp87
(dp88
g30
g70
sg62
I100
sg63
Nsg64
I50
sg65
I0
sg66
I50
sbag0
(g57
g2
Ntp89
Rp90
(dp91
g30
g70
sg62
I100
sg63
Nsg64
I50
sg65
I0
sg66
I50
sbag0
(g57
g2
Ntp92
Rp93
(dp94
g30
cnumpy.core.multiarray
scalar
p95
(cnumpy
dtype
p96
(VU7
p97
I0
I1
tp98
Rp99
(I3
V<
p100
NNNI28
I4
I8
tp101
bc_codecs
encode
p102
(VW\u0000\u0000\u0000e\u0000\u0000\u0000l\u0000\u0000\u0000f\u0000\u0000\u0000a\u0000\u0000\u0000r\u0000\u0000\u0000e\u0000\u0000\u0000
p103
Vlatin1
p104
tp105
Rp106
tp107
Rp108
sg62
I-1
sg63
Nsg64
I-1
sg65
I0
sg66
I-1
sbag0
(g57
g2
Ntp109
Rp110
(dp111
g30
g70
sg62
I100
sg63
Nsg64
I50
sg65
I0
sg66
I50
sbag0
(g57
g2
Ntp112
Rp113
(dp114
g30
g70
sg62
I100
sg63
Nsg64
I50
sg65
I0
sg66
I50
sbag0
(g57
g2
Ntp115
Rp116
(dp117
g30
g70
sg62
I100
sg63
Nsg64
I50
sg65
I0
sg66
I50
sbag0
(g57
g2
Ntp118
Rp119
(dp120
g30
g70
sg62
I100
sg63
Nsg64
I50
sg65
I0
sg66
I50
sbag0
(g57
g2
Ntp121
Rp122
(dp123
g30
g70
sg62
I100
sg63
Nsg64
I50
sg65
I0
sg66
I50
sbag0
(g57
g2
Ntp124
Rp125
(dp126
g30
g70
sg62
I100
sg63
Nsg64
I50
sg65
I0
sg66
I50
sbag0
(g57
g2
Ntp127
Rp128
(dp129
g30
g70
sg62
I100
sg63
Nsg64
I50
sg65
I0
sg66
I50
sbag0
(g57
g2
Ntp130
Rp131
(dp132
g30
g70
sg62
I100
sg63
Nsg64
I50
sg65
I0
sg66
I50
sbag0
(g57
g2
Ntp133
Rp134
(dp135
g30
g108
sg62
I-1
sg63
Nsg64
I-1
sg65
I0
sg66
I-1
sbag0
(g57
g2
Ntp136
Rp137
(dp138
g30
g70
sg62
I100
sg63
Nsg64
I50
sg65
I0
sg66
I50
sbag0
(g57
g2
Ntp139
Rp140
(dp141
g30
g70
sg62
I100
sg63
Nsg64
I50
sg65
I0
sg66
I50
sbag0
(g57
g2
Ntp142
Rp143
(dp144
g30
g70
sg62
I100
sg63
Nsg64
I50
sg65
I0
sg66
I50
sbag0
(g57
g2
Ntp145
Rp146
(dp147
g30
g70
sg62
I100
sg63
Nsg64
I50
sg65
I0
sg66
I50
sbag0
(g57
g2
Ntp148
Rp149
(dp150
g30
g70
sg62
I100
sg63
Nsg64
I50
sg65
I0
sg66
I50
sbag0
(g57
g2
Ntp151
Rp152
(dp153
g30
g70
sg62
I100
sg63
Nsg64
I50
sg65
I0
sg66
I50
sbag0
(g57
g2
Ntp154
Rp155
(dp156
g30
g70
sg62
I100
sg63
Nsg64
I50
sg65
I0
sg66
I50
sbag0
(g57
g2
Ntp157
Rp158
(dp159
g30
g70
sg62
I100
sg63
Nsg64
I50
sg65
I0
sg66
I50
sbag0
(g57
g2
Ntp160
Rp161
(dp162
g30
g108
sg62
I-1
sg63
Nsg64
I-1
sg65
I0
sg66
I-1
sbag0
(g57
g2
Ntp163
Rp164
(dp165
g30
g70
sg62
I100
sg63
Nsg64
I50
sg65
I0
sg66
I50
sbag0
(g57
g2
Ntp166
Rp167
(dp168
g30
g70
sg62
I100
sg63
Nsg64
I50
sg65
I0
sg66
I50
sbag0
(g57
g2
Ntp169
Rp170
(dp171
g30
g70
sg62
I100
sg63
Nsg64
I50
sg65
I0
sg66
I50
sbag0
(g57
g2
Ntp172
Rp173
(dp174
g30
g70
sg62
I100
sg63
Nsg64
I50
sg65
I0
sg66
I50
sbag0
(g57
g2
Ntp175
Rp176
(dp177
g30
g70
sg62
I100
sg63
Nsg64
I50
sg65
I0
sg66
I50
sbag0
(g57
g2
Ntp178
Rp179
(dp180
g30
g70
sg62
I100
sg63
Nsg64
I50
sg65
I0
sg66
I50
sbag0
(g57
g2
Ntp181
Rp182
(dp183
g30
g70
sg62
I100
sg63
Nsg64
I50
sg65
I0
sg66
I50
sbag0
(g57
g2
Ntp184
Rp185
(dp186
g30
g70
sg62
I100
sg63
Nsg64
I50
sg65
I0
sg66
I50
sbasbsVplay_players
p187
(lp188
g18
ag37
asVmaps_address
p189
(lp190
V.DS_Store
p191
ag13
asVplayers_address
p192
(lp193
VTom.txt
p194
aV.DS_Store
p195
aVBilly.txt
p196
asb.